(dp0
S'username'
p1
S'djenaliou'
p2
sS'userpwd2'
p3
S'Djenabou3'
p4
sS'useremail'
p5
S'mamadou1fetowel@yahoo.fr'
p6
sS'firstname'
p7
S'mamadou'
p8
sS'lastname'
p9
S'barry'
p10
sS'birthdate'
p11
S'1996-05-17'
p12
sS'userpwd'
p13
S'33a94aeee5aca7aa3a2744f95f74a990df07c124d8705e9ffb5e4cc523f6771fece42f1f9e059cafe7a4ed581650d4a5a2a619cc65712bcab0e9bc61a58cbca6'
p14
s.